(S'http://www.syslogcenter.com/theme/theme2/rss6.php'
p0
S'cache/420753ad108de40c26c76821069efdb5.xml'
p1
tp2
.(S'http://www.syslogcenter.com/theme/theme2/rss3.php'
p0
S'cache/f4765ee220388dd26d220a2b4d1fcf7c.xml'
p1
tp2
.(S'http://www.syslogcenter.com/theme/theme2/rss.php'
p0
S'cache/ae7300b8ffbb058d1c8e1daef6744fb5.xml'
p1
tp2
.(S'http://www.syslogcenter.com/theme/theme2/rss5.php'
p0
S'cache/7480f26305f8dcfe78d1313f2d1d5f5f.xml'
p1
tp2
.